; Function Attrs: nounwind uwtable
define hidden void @luaK_goiftrue(ptr noundef captures(none) %0, ptr noundef captures(none) %1) local_unnamed_addr #0 {
  tail call void @luaK_dischargevars(ptr noundef %0, ptr noundef %1)
  %3 = load i32, ptr %1, align 8, !tbaa !51
  switch i32 %3, label %24 [
    i32 4, label %luaK_concat.exit
    i32 5, label %luaK_concat.exit
    i32 2, label %luaK_concat.exit
    i32 10, label %4
  ]

4:                                                ; preds = %2
  %.val = load ptr, ptr %0, align 8, !tbaa !19
  %5 = getelementptr i8, ptr %1, i64 8
  %.val13 = load i32, ptr %5, align 8, !tbaa !39
  %6 = getelementptr i8, ptr %.val, i64 24
  %.val.val = load ptr, ptr %6, align 8, !tbaa !20
  %7 = sext i32 %.val13 to i64
  %8 = getelementptr inbounds i32, ptr %.val.val, i64 %7
  %9 = icmp sgt i32 %.val13, 0
  br i1 %9, label %10, label %17

10:                                               ; preds = %4
  %11 = getelementptr inbounds i8, ptr %8, i64 -4
  %12 = load i32, ptr %11, align 4, !tbaa !29
  %13 = and i32 %12, 63
  %14 = zext nneg i32 %13 to i64
  %15 = getelementptr inbounds nuw [38 x i8], ptr @luaP_opmodes, i64 0, i64 %14
  %16 = load i8, ptr %15, align 1, !tbaa !39
  %.not.i.i = icmp sgt i8 %16, -1
  br i1 %.not.i.i, label %17, label %invertjump.exit

17:                                               ; preds = %10, %4
  %.pre.i = load i32, ptr %8, align 4, !tbaa !29
  br label %invertjump.exit

invertjump.exit:                                  ; preds = %10, %17
  %18 = phi i32 [ %.pre.i, %17 ], [ %12, %10 ]
  %.0.i.i = phi ptr [ %8, %17 ], [ %11, %10 ]
  %19 = and i32 %18, -16321
  %20 = and i32 %18, 16320
  %.not.i = icmp eq i32 %20, 0
  %21 = select i1 %.not.i, i32 64, i32 0
  %22 = or disjoint i32 %21, %19
  store i32 %22, ptr %.0.i.i, align 4, !tbaa !29
  %23 = load i32, ptr %5, align 8, !tbaa !39
  br label %26

24:                                               ; preds = %2
  %25 = tail call fastcc i32 @jumponcond(ptr noundef %0, ptr noundef nonnull %1, i32 noundef 0)
  br label %26

26:                                               ; preds = %24, %invertjump.exit
  %.0 = phi i32 [ %25, %24 ], [ %23, %invertjump.exit ]
  %27 = getelementptr inbounds nuw i8, ptr %1, i64 20
  %28 = icmp eq i32 %.0, -1
  br i1 %28, label %luaK_concat.exit, label %29

29:                                               ; preds = %26
  %30 = load i32, ptr %27, align 4, !tbaa !29
  %31 = icmp eq i32 %30, -1
  br i1 %31, label %33, label %.preheader.i

.preheader.i:                                     ; preds = %29
  %.val.i = load ptr, ptr %0, align 8, !tbaa !19
  %32 = getelementptr i8, ptr %.val.i, i64 24
  %.val.val.i = load ptr, ptr %32, align 8, !tbaa !20
  br label %34

33:                                               ; preds = %29
  store i32 %.0, ptr %27, align 4, !tbaa !29
  br label %luaK_concat.exit

34:                                               ; preds = %34, %.preheader.i
  %.0.i = phi i32 [ %42, %34 ], [ %30, %.preheader.i ]
  %35 = sext i32 %.0.i to i64
  %36 = getelementptr inbounds i32, ptr %.val.val.i, i64 %35
  %37 = load i32, ptr %36, align 4, !tbaa !29
  %38 = lshr i32 %37, 14
  %39 = add nsw i32 %38, -131071
  %40 = icmp eq i32 %39, -1
  %41 = add nuw nsw i32 %.0.i, 1
  %42 = add nsw i32 %41, %39
  %.not13.i = icmp eq i32 %42, -1
  %.not.i14 = select i1 %40, i1 true, i1 %.not13.i
  br i1 %.not.i14, label %43, label %34, !llvm.loop !37

43:                                               ; preds = %34
  %44 = getelementptr inbounds i32, ptr %.val.val.i, i64 %35
  %.neg.i.i = xor i32 %.0.i, -1
  %45 = add i32 %.0, %.neg.i.i
  %46 = tail call i32 @llvm.abs.i32(i32 %45, i1 true)
  %47 = icmp samesign ugt i32 %46, 131071
  br i1 %47, label %48, label %fixjump.exit.i

48:                                               ; preds = %43
  %49 = getelementptr inbounds nuw i8, ptr %0, i64 24
  %50 = load ptr, ptr %49, align 8, !tbaa !30
  tail call void @luaX_syntaxerror(ptr noundef %50, ptr noundef nonnull @.str.1) #8
  %.pre.i15 = load i32, ptr %44, align 4, !tbaa !29
  br label %fixjump.exit.i

fixjump.exit.i:                                   ; preds = %48, %43
  %51 = phi i32 [ %37, %43 ], [ %.pre.i15, %48 ]
  %52 = and i32 %51, 16383
  %53 = shl i32 %45, 14
  %54 = add i32 %53, 2147467264
  %55 = or disjoint i32 %52, %54
  store i32 %55, ptr %44, align 4, !tbaa !29
  br label %luaK_concat.exit

luaK_concat.exit:                                 ; preds = %2, %2, %2, %26, %33, %fixjump.exit.i
  %56 = getelementptr inbounds nuw i8, ptr %1, i64 16
  %57 = load i32, ptr %56, align 8, !tbaa !53
  %58 = getelementptr inbounds nuw i8, ptr %0, i64 48
  %59 = load i32, ptr %58, align 8, !tbaa !4
  %60 = getelementptr inbounds nuw i8, ptr %0, i64 52
  store i32 %59, ptr %60, align 4, !tbaa !17
  %61 = getelementptr inbounds nuw i8, ptr %0, i64 56
  %62 = icmp eq i32 %57, -1
  br i1 %62, label %luaK_patchtohere.exit, label %63

63:                                               ; preds = %luaK_concat.exit
  %64 = load i32, ptr %61, align 4, !tbaa !29
  %65 = icmp eq i32 %64, -1
  br i1 %65, label %67, label %.preheader.i.i

.preheader.i.i:                                   ; preds = %63
  %.val.i.i = load ptr, ptr %0, align 8, !tbaa !19
  %66 = getelementptr i8, ptr %.val.i.i, i64 24
  %.val.val.i.i = load ptr, ptr %66, align 8, !tbaa !20
  br label %68

67:                                               ; preds = %63
  store i32 %57, ptr %61, align 4, !tbaa !29
  br label %luaK_patchtohere.exit

68:                                               ; preds = %68, %.preheader.i.i
  %.0.i.i16 = phi i32 [ %76, %68 ], [ %64, %.preheader.i.i ]
  %69 = sext i32 %.0.i.i16 to i64
  %70 = getelementptr inbounds i32, ptr %.val.val.i.i, i64 %69
  %71 = load i32, ptr %70, align 4, !tbaa !29
  %72 = lshr i32 %71, 14
  %73 = add nsw i32 %72, -131071
  %74 = icmp eq i32 %73, -1
  %75 = add nuw nsw i32 %.0.i.i16, 1
  %76 = add nsw i32 %75, %73
  %.not13.i.i = icmp eq i32 %76, -1
  %.not.i.i17 = select i1 %74, i1 true, i1 %.not13.i.i
  br i1 %.not.i.i17, label %77, label %68, !llvm.loop !37

77:                                               ; preds = %68
  %78 = getelementptr inbounds i32, ptr %.val.val.i.i, i64 %69
  %.neg.i.i.i = xor i32 %.0.i.i16, -1
  %79 = add i32 %57, %.neg.i.i.i
  %80 = tail call i32 @llvm.abs.i32(i32 %79, i1 true)
  %81 = icmp samesign ugt i32 %80, 131071
  br i1 %81, label %82, label %fixjump.exit.i.i

82:                                               ; preds = %77
  %83 = getelementptr inbounds nuw i8, ptr %0, i64 24
  %84 = load ptr, ptr %83, align 8, !tbaa !30
  tail call void @luaX_syntaxerror(ptr noundef %84, ptr noundef nonnull @.str.1) #8
  %.pre.i.i = load i32, ptr %78, align 4, !tbaa !29
  br label %fixjump.exit.i.i

fixjump.exit.i.i:                                 ; preds = %82, %77
  %85 = phi i32 [ %71, %77 ], [ %.pre.i.i, %82 ]
  %86 = and i32 %85, 16383
  %87 = shl i32 %79, 14
  %88 = add i32 %87, 2147467264
  %89 = or disjoint i32 %86, %88
  store i32 %89, ptr %78, align 4, !tbaa !29
  br label %luaK_patchtohere.exit

luaK_patchtohere.exit:                            ; preds = %luaK_concat.exit, %67, %fixjump.exit.i.i
  store i32 -1, ptr %56, align 8, !tbaa !53
  ret void
}